target datalayout = "e-m:e-p270:32:32-p271:32:32-p272:64:64-i64:64-i128:128-f80:128-n8:16:32:64-S128"
target triple = "x86_64-pc-linux-gnu"

%"class.icu_77::SpoofData" = type { ptr, i8, ptr, i32, %"struct.std::atomic", ptr, ptr, ptr }
%"struct.std::atomic" = type { %"struct.std::__atomic_base" }
%"struct.std::__atomic_base" = type { i32 }
%"struct.icu_77::SpoofDataHeader" = type { i32, [4 x i8], i32, i32, i32, i32, i32, i32, i32, [15 x i32] }

; Function Attrs: mustprogress nounwind uwtable
define linkonce_odr noundef i32 @_ZStanSt12memory_orderSt23__memory_order_modifier(i32 noundef %0, i32 noundef %1) #0 comdat {
  %3 = alloca i32, align 4
  %4 = alloca i32, align 4
  store i32 %0, ptr %3, align 4, !tbaa !130
  store i32 %1, ptr %4, align 4, !tbaa !132
  %5 = load i32, ptr %3, align 4, !tbaa !130
  %6 = load i32, ptr %4, align 4, !tbaa !132
  %7 = and i32 %5, %6
  ret i32 %7
}

; Function Attrs: alwaysinline mustprogress nounwind uwtable
define linkonce_odr void @_ZNSt13__atomic_baseIiE5storeEiSt12memory_order(ptr noundef nonnull align 4 dereferenceable(4) %0, i32 noundef %1, i32 noundef %2) #14 comdat align 2 {
  %4 = alloca ptr, align 8
  %5 = alloca i32, align 4
  %6 = alloca i32, align 4
  %7 = alloca i32, align 4
  %8 = alloca i32, align 4
  store ptr %0, ptr %4, align 8, !tbaa !106
  store i32 %1, ptr %5, align 4, !tbaa !48
  store i32 %2, ptr %6, align 4, !tbaa !130
  %9 = load ptr, ptr %4, align 8
  call void @llvm.lifetime.start.p0(i64 4, ptr %7) #15
  %10 = load i32, ptr %6, align 4, !tbaa !130
  %11 = call noundef i32 @_ZStanSt12memory_orderSt23__memory_order_modifier(i32 noundef %10, i32 noundef 65535)
  store i32 %11, ptr %7, align 4, !tbaa !130
  br label %12

12:                                               ; preds = %3
  br label %13

13:                                               ; preds = %12
  br label %14

14:                                               ; preds = %13
  br label %15

15:                                               ; preds = %14
  br label %16

16:                                               ; preds = %15
  br label %17

17:                                               ; preds = %16
  br label %18

18:                                               ; preds = %17
  br label %19

19:                                               ; preds = %18
  br label %20

20:                                               ; preds = %19
  %21 = getelementptr inbounds nuw %"struct.std::__atomic_base", ptr %9, i32 0, i32 0
  %22 = load i32, ptr %6, align 4, !tbaa !130
  %23 = load i32, ptr %5, align 4, !tbaa !48
  store i32 %23, ptr %8, align 4, !tbaa !48
  switch i32 %22, label %24 [
    i32 3, label %26
    i32 5, label %28
  ]

24:                                               ; preds = %20
  %25 = load i32, ptr %8, align 4
  store atomic i32 %25, ptr %21 monotonic, align 4
  br label %30

26:                                               ; preds = %20
  %27 = load i32, ptr %8, align 4
  store atomic i32 %27, ptr %21 release, align 4
  br label %30

28:                                               ; preds = %20
  %29 = load i32, ptr %8, align 4
  store atomic i32 %29, ptr %21 seq_cst, align 4
  br label %30

30:                                               ; preds = %28, %26, %24
  call void @llvm.lifetime.end.p0(i64 4, ptr %7) #15
  ret void
}

; Function Attrs: mustprogress nounwind uwtable
define linkonce_odr noundef i32 @_ZNSt13__atomic_baseIiEaSEi(ptr noundef nonnull align 4 dereferenceable(4) %0, i32 noundef %1) #0 comdat align 2 {
  %3 = alloca ptr, align 8
  %4 = alloca i32, align 4
  store ptr %0, ptr %3, align 8, !tbaa !106
  store i32 %1, ptr %4, align 4, !tbaa !48
  %5 = load ptr, ptr %3, align 8
  %6 = load i32, ptr %4, align 4, !tbaa !48
  call void @_ZNSt13__atomic_baseIiE5storeEiSt12memory_order(ptr noundef nonnull align 4 dereferenceable(4) %5, i32 noundef %6, i32 noundef 5) #15
  %7 = load i32, ptr %4, align 4, !tbaa !48
  ret i32 %7
}

; Function Attrs: mustprogress uwtable
define void @_ZN6icu_779SpoofData8initPtrsER10UErrorCode(ptr noundef nonnull align 8 dereferenceable(56) %0, ptr noundef nonnull align 4 dereferenceable(4) %1) #1 align 2 {
  %3 = alloca ptr, align 8
  %4 = alloca ptr, align 8
  store ptr %0, ptr %3, align 8, !tbaa !8
  store ptr %1, ptr %4, align 8, !tbaa !10
  %5 = load ptr, ptr %3, align 8
  %6 = getelementptr inbounds nuw %"class.icu_77::SpoofData", ptr %5, i32 0, i32 5
  store ptr null, ptr %6, align 8, !tbaa !99
  %7 = getelementptr inbounds nuw %"class.icu_77::SpoofData", ptr %5, i32 0, i32 6
  store ptr null, ptr %7, align 8, !tbaa !100
  %8 = getelementptr inbounds nuw %"class.icu_77::SpoofData", ptr %5, i32 0, i32 7
  store ptr null, ptr %8, align 8, !tbaa !101
  %9 = load ptr, ptr %4, align 8, !tbaa !10
  %10 = load i32, ptr %9, align 4, !tbaa !30
  %11 = call noundef signext i8 @_ZL9U_FAILURE10UErrorCode(i32 noundef %10)
  %12 = icmp ne i8 %11, 0
  br i1 %12, label %13, label %14

13:                                               ; preds = %2
  br label %62

14:                                               ; preds = %2
  %15 = getelementptr inbounds nuw %"class.icu_77::SpoofData", ptr %5, i32 0, i32 0
  %16 = load ptr, ptr %15, align 8, !tbaa !35
  %17 = getelementptr inbounds nuw %"struct.icu_77::SpoofDataHeader", ptr %16, i32 0, i32 3
  %18 = load i32, ptr %17, align 4, !tbaa !102
  %19 = icmp ne i32 %18, 0
  br i1 %19, label %20, label %30

20:                                               ; preds = %14
  %21 = getelementptr inbounds nuw %"class.icu_77::SpoofData", ptr %5, i32 0, i32 0
  %22 = load ptr, ptr %21, align 8, !tbaa !35
  %23 = getelementptr inbounds nuw %"class.icu_77::SpoofData", ptr %5, i32 0, i32 0
  %24 = load ptr, ptr %23, align 8, !tbaa !35
  %25 = getelementptr inbounds nuw %"struct.icu_77::SpoofDataHeader", ptr %24, i32 0, i32 3
  %26 = load i32, ptr %25, align 4, !tbaa !102
  %27 = sext i32 %26 to i64
  %28 = getelementptr inbounds i8, ptr %22, i64 %27
  %29 = getelementptr inbounds nuw %"class.icu_77::SpoofData", ptr %5, i32 0, i32 5
  store ptr %28, ptr %29, align 8, !tbaa !99
  br label %30

30:                                               ; preds = %20, %14
  %31 = getelementptr inbounds nuw %"class.icu_77::SpoofData", ptr %5, i32 0, i32 0
  %32 = load ptr, ptr %31, align 8, !tbaa !35
  %33 = getelementptr inbounds nuw %"struct.icu_77::SpoofDataHeader", ptr %32, i32 0, i32 5
  %34 = load i32, ptr %33, align 4, !tbaa !103
  %35 = icmp ne i32 %34, 0
  br i1 %35, label %36, label %46

36:                                               ; preds = %30
  %37 = getelementptr inbounds nuw %"class.icu_77::SpoofData", ptr %5, i32 0, i32 0
  %38 = load ptr, ptr %37, align 8, !tbaa !35
  %39 = getelementptr inbounds nuw %"class.icu_77::SpoofData", ptr %5, i32 0, i32 0
  %40 = load ptr, ptr %39, align 8, !tbaa !35
  %41 = getelementptr inbounds nuw %"struct.icu_77::SpoofDataHeader", ptr %40, i32 0, i32 5
  %42 = load i32, ptr %41, align 4, !tbaa !103
  %43 = sext i32 %42 to i64
  %44 = getelementptr inbounds i8, ptr %38, i64 %43
  %45 = getelementptr inbounds nuw %"class.icu_77::SpoofData", ptr %5, i32 0, i32 6
  store ptr %44, ptr %45, align 8, !tbaa !100
  br label %46

46:                                               ; preds = %36, %30
  %47 = getelementptr inbounds nuw %"class.icu_77::SpoofData", ptr %5, i32 0, i32 0
  %48 = load ptr, ptr %47, align 8, !tbaa !35
  %49 = getelementptr inbounds nuw %"struct.icu_77::SpoofDataHeader", ptr %48, i32 0, i32 7
  %50 = load i32, ptr %49, align 4, !tbaa !104
  %51 = icmp ne i32 %50, 0
  br i1 %51, label %52, label %62

52:                                               ; preds = %46
  %53 = getelementptr inbounds nuw %"class.icu_77::SpoofData", ptr %5, i32 0, i32 0
  %54 = load ptr, ptr %53, align 8, !tbaa !35
  %55 = getelementptr inbounds nuw %"class.icu_77::SpoofData", ptr %5, i32 0, i32 0
  %56 = load ptr, ptr %55, align 8, !tbaa !35
  %57 = getelementptr inbounds nuw %"struct.icu_77::SpoofDataHeader", ptr %56, i32 0, i32 7
  %58 = load i32, ptr %57, align 4, !tbaa !104
  %59 = sext i32 %58 to i64
  %60 = getelementptr inbounds i8, ptr %54, i64 %59
  %61 = getelementptr inbounds nuw %"class.icu_77::SpoofData", ptr %5, i32 0, i32 7
  store ptr %60, ptr %61, align 8, !tbaa !101
  br label %62

62:                                               ; preds = %13, %52, %46
  ret void
}

; Function Attrs: mustprogress uwtable
define noundef signext i8 @_ZNK6icu_779SpoofData19validateDataVersionER10UErrorCode(ptr noundef nonnull align 8 dereferenceable(56) %0, ptr noundef nonnull align 4 dereferenceable(4) %1) #1 align 2 {
  %3 = alloca i8, align 1
  %4 = alloca ptr, align 8
  %5 = alloca ptr, align 8
  store ptr %0, ptr %4, align 8, !tbaa !8
  store ptr %1, ptr %5, align 8, !tbaa !10
  %6 = load ptr, ptr %4, align 8
  %7 = load ptr, ptr %5, align 8, !tbaa !10
  %8 = load i32, ptr %7, align 4, !tbaa !30
  %9 = call noundef signext i8 @_ZL9U_FAILURE10UErrorCode(i32 noundef %8)
  %10 = icmp ne i8 %9, 0
  br i1 %10, label %53, label %11

11:                                               ; preds = %2
  %12 = getelementptr inbounds nuw %"class.icu_77::SpoofData", ptr %6, i32 0, i32 0
  %13 = load ptr, ptr %12, align 8, !tbaa !35
  %14 = icmp eq ptr %13, null
  br i1 %14, label %53, label %15

15:                                               ; preds = %11
  %16 = getelementptr inbounds nuw %"class.icu_77::SpoofData", ptr %6, i32 0, i32 0
  %17 = load ptr, ptr %16, align 8, !tbaa !35
  %18 = getelementptr inbounds nuw %"struct.icu_77::SpoofDataHeader", ptr %17, i32 0, i32 0
  %19 = load i32, ptr %18, align 4, !tbaa !44
  %20 = icmp ne i32 %19, 944111087
  br i1 %20, label %53, label %21

21:                                               ; preds = %15
  %22 = getelementptr inbounds nuw %"class.icu_77::SpoofData", ptr %6, i32 0, i32 0
  %23 = load ptr, ptr %22, align 8, !tbaa !35
  %24 = getelementptr inbounds nuw %"struct.icu_77::SpoofDataHeader", ptr %23, i32 0, i32 1
  %25 = getelementptr inbounds [4 x i8], ptr %24, i64 0, i64 0
  %26 = load i8, ptr %25, align 4, !tbaa !46
  %27 = zext i8 %26 to i32
  %28 = icmp ne i32 %27, 2
  br i1 %28, label %53, label %29

29:                                               ; preds = %21
  %30 = getelementptr inbounds nuw %"class.icu_77::SpoofData", ptr %6, i32 0, i32 0
  %31 = load ptr, ptr %30, align 8, !tbaa !35
  %32 = getelementptr inbounds nuw %"struct.icu_77::SpoofDataHeader", ptr %31, i32 0, i32 1
  %33 = getelementptr inbounds [4 x i8], ptr %32, i64 0, i64 1
  %34 = load i8, ptr %33, align 1, !tbaa !46
  %35 = zext i8 %34 to i32
  %36 = icmp ne i32 %35, 0
  br i1 %36, label %53, label %37

37:                                               ; preds = %29
  %38 = getelementptr inbounds nuw %"class.icu_77::SpoofData", ptr %6, i32 0, i32 0
  %39 = load ptr, ptr %38, align 8, !tbaa !35
  %40 = getelementptr inbounds nuw %"struct.icu_77::SpoofDataHeader", ptr %39, i32 0, i32 1
  %41 = getelementptr inbounds [4 x i8], ptr %40, i64 0, i64 2
  %42 = load i8, ptr %41, align 2, !tbaa !46
  %43 = zext i8 %42 to i32
  %44 = icmp ne i32 %43, 0
  br i1 %44, label %53, label %45

45:                                               ; preds = %37
  %46 = getelementptr inbounds nuw %"class.icu_77::SpoofData", ptr %6, i32 0, i32 0
  %47 = load ptr, ptr %46, align 8, !tbaa !35
  %48 = getelementptr inbounds nuw %"struct.icu_77::SpoofDataHeader", ptr %47, i32 0, i32 1
  %49 = getelementptr inbounds [4 x i8], ptr %48, i64 0, i64 3
  %50 = load i8, ptr %49, align 1, !tbaa !46
  %51 = zext i8 %50 to i32
  %52 = icmp ne i32 %51, 0
  br i1 %52, label %53, label %55

53:                                               ; preds = %45, %37, %29, %21, %15, %11, %2
  %54 = load ptr, ptr %5, align 8, !tbaa !10
  store i32 3, ptr %54, align 4, !tbaa !30
  store i8 0, ptr %3, align 1
  br label %56

55:                                               ; preds = %45
  store i8 1, ptr %3, align 1
  br label %56

56:                                               ; preds = %55, %53
  %57 = load i8, ptr %3, align 1
  ret i8 %57
}

; Function Attrs: inlinehint mustprogress nounwind uwtable
define internal noundef signext i8 @_ZL9U_FAILURE10UErrorCode(i32 noundef %0) #2 {
  %2 = alloca i32, align 4
  store i32 %0, ptr %2, align 4, !tbaa !30
  %3 = load i32, ptr %2, align 4, !tbaa !30
  %4 = icmp sgt i32 %3, 0
  %5 = zext i1 %4 to i8
  ret i8 %5
}

; Function Attrs: mustprogress nounwind uwtable
define void @_ZN6icu_779SpoofData5resetEv(ptr noundef nonnull align 8 dereferenceable(56) %0) #0 align 2 {
  %2 = alloca ptr, align 8
  store ptr %0, ptr %2, align 8, !tbaa !8
  %3 = load ptr, ptr %2, align 8
  %4 = getelementptr inbounds nuw %"class.icu_77::SpoofData", ptr %3, i32 0, i32 0
  store ptr null, ptr %4, align 8, !tbaa !35
  %5 = getelementptr inbounds nuw %"class.icu_77::SpoofData", ptr %3, i32 0, i32 1
  store i8 0, ptr %5, align 8, !tbaa !97
  %6 = getelementptr inbounds nuw %"class.icu_77::SpoofData", ptr %3, i32 0, i32 2
  store ptr null, ptr %6, align 8, !tbaa !96
  %7 = getelementptr inbounds nuw %"class.icu_77::SpoofData", ptr %3, i32 0, i32 3
  store i32 0, ptr %7, align 8, !tbaa !98
  %8 = getelementptr inbounds nuw %"class.icu_77::SpoofData", ptr %3, i32 0, i32 4
  %9 = call noundef i32 @_ZNSt13__atomic_baseIiEaSEi(ptr noundef nonnull align 4 dereferenceable(4) %8, i32 noundef 1) #15
  %10 = getelementptr inbounds nuw %"class.icu_77::SpoofData", ptr %3, i32 0, i32 5
  store ptr null, ptr %10, align 8, !tbaa !99
  %11 = getelementptr inbounds nuw %"class.icu_77::SpoofData", ptr %3, i32 0, i32 6
  store ptr null, ptr %11, align 8, !tbaa !100
  %12 = getelementptr inbounds nuw %"class.icu_77::SpoofData", ptr %3, i32 0, i32 7
  store ptr null, ptr %12, align 8, !tbaa !101
  ret void
}

; Function Attrs: mustprogress uwtable
define void @_ZN6icu_779SpoofDataC2EP11UDataMemoryR10UErrorCode(ptr noundef nonnull align 8 dereferenceable(56) %0, ptr noundef %1, ptr noundef nonnull align 4 dereferenceable(4) %2) unnamed_addr #1 align 2 {
  %4 = alloca ptr, align 8
  %5 = alloca ptr, align 8
  %6 = alloca ptr, align 8
  store ptr %0, ptr %4, align 8, !tbaa !8
  store ptr %1, ptr %5, align 8, !tbaa !95
  store ptr %2, ptr %6, align 8, !tbaa !10
  %7 = load ptr, ptr %4, align 8
  call void @_ZN6icu_779SpoofData5resetEv(ptr noundef nonnull align 8 dereferenceable(56) %7)
  %8 = load ptr, ptr %6, align 8, !tbaa !10
  %9 = load i32, ptr %8, align 4, !tbaa !30
  %10 = call noundef signext i8 @_ZL9U_FAILURE10UErrorCode(i32 noundef %9)
  %11 = icmp ne i8 %10, 0
  br i1 %11, label %12, label %13

12:                                               ; preds = %3
  br label %22

13:                                               ; preds = %3
  %14 = load ptr, ptr %5, align 8, !tbaa !95
  %15 = getelementptr inbounds nuw %"class.icu_77::SpoofData", ptr %7, i32 0, i32 2
  store ptr %14, ptr %15, align 8, !tbaa !96
  %16 = load ptr, ptr %5, align 8, !tbaa !95
  %17 = call ptr @udata_getMemory_77(ptr noundef %16)
  %18 = getelementptr inbounds nuw %"class.icu_77::SpoofData", ptr %7, i32 0, i32 0
  store ptr %17, ptr %18, align 8, !tbaa !35
  %19 = load ptr, ptr %6, align 8, !tbaa !10
  %20 = call noundef signext i8 @_ZNK6icu_779SpoofData19validateDataVersionER10UErrorCode(ptr noundef nonnull align 8 dereferenceable(56) %7, ptr noundef nonnull align 4 dereferenceable(4) %19)
  %21 = load ptr, ptr %6, align 8, !tbaa !10
  call void @_ZN6icu_779SpoofData8initPtrsER10UErrorCode(ptr noundef nonnull align 8 dereferenceable(56) %7, ptr noundef nonnull align 4 dereferenceable(4) %21)
  br label %22

22:                                               ; preds = %13, %12
  ret void
}