; Function Attrs: mustprogress uwtable
define void @_ZN6icu_779SpoofDataC2EP11UDataMemoryR10UErrorCode(ptr noundef nonnull writeonly align 8 captures(none) dereferenceable(56) initializes((0, 9), (16, 28)) %0, ptr noundef %1, ptr noundef nonnull align 4 captures(none) dereferenceable(4) %2) unnamed_addr #1 align 2 {
  store ptr null, ptr %0, align 8, !tbaa !29
  %4 = getelementptr inbounds nuw i8, ptr %0, i64 8
  store i8 0, ptr %4, align 8, !tbaa !73
  %5 = getelementptr inbounds nuw i8, ptr %0, i64 16
  store ptr null, ptr %5, align 8, !tbaa !74
  %6 = getelementptr inbounds nuw i8, ptr %0, i64 24
  store i32 0, ptr %6, align 8, !tbaa !75
  %7 = getelementptr inbounds nuw i8, ptr %0, i64 28
  store atomic i32 1, ptr %7 seq_cst, align 4
  %8 = getelementptr inbounds nuw i8, ptr %0, i64 32
  tail call void @llvm.memset.p0.i64(ptr noundef nonnull align 8 dereferenceable(24) %8, i8 0, i64 24, i1 false)
  %9 = load i32, ptr %2, align 4, !tbaa !19
  %10 = icmp slt i32 %9, 1
  br i1 %10, label %11, label %_ZN6icu_779SpoofData8initPtrsER10UErrorCode.exit

11:                                               ; preds = %3
  store ptr %1, ptr %5, align 8, !tbaa !74
  %12 = tail call ptr @udata_getMemory_77(ptr noundef %1)
  store ptr %12, ptr %0, align 8, !tbaa !29
  %13 = load i32, ptr %2, align 4, !tbaa !19
  %14 = icmp sgt i32 %13, 0
  %15 = icmp eq ptr %12, null
  %or.cond = select i1 %14, i1 true, i1 %15
  br i1 %or.cond, label %30, label %16

16:                                               ; preds = %11
  %17 = load i32, ptr %12, align 4, !tbaa !36
  %.not4.i = icmp eq i32 %17, 944111087
  br i1 %.not4.i, label %18, label %30

18:                                               ; preds = %16
  %19 = getelementptr inbounds nuw i8, ptr %12, i64 4
  %20 = load i8, ptr %19, align 4, !tbaa !38
  %.not5.i = icmp eq i8 %20, 2
  br i1 %.not5.i, label %21, label %30

21:                                               ; preds = %18
  %22 = getelementptr inbounds nuw i8, ptr %12, i64 5
  %23 = load i8, ptr %22, align 1, !tbaa !38
  %.not6.i = icmp eq i8 %23, 0
  br i1 %.not6.i, label %24, label %30

24:                                               ; preds = %21
  %25 = getelementptr inbounds nuw i8, ptr %12, i64 6
  %26 = load i8, ptr %25, align 2, !tbaa !38
  %.not7.i = icmp eq i8 %26, 0
  br i1 %.not7.i, label %27, label %30

27:                                               ; preds = %24
  %28 = getelementptr inbounds nuw i8, ptr %12, i64 7
  %29 = load i8, ptr %28, align 1, !tbaa !38
  %.not8.i = icmp eq i8 %29, 0
  br i1 %.not8.i, label %_ZNK6icu_779SpoofData19validateDataVersionER10UErrorCode.exit, label %30

30:                                               ; preds = %27, %24, %21, %18, %16, %11
  store i32 3, ptr %2, align 4, !tbaa !19
  br label %_ZNK6icu_779SpoofData19validateDataVersionER10UErrorCode.exit

_ZNK6icu_779SpoofData19validateDataVersionER10UErrorCode.exit: ; preds = %27, %30
  %31 = getelementptr inbounds nuw i8, ptr %0, i64 40
  %32 = getelementptr inbounds nuw i8, ptr %0, i64 48
  tail call void @llvm.memset.p0.i64(ptr noundef nonnull align 8 dereferenceable(24) %8, i8 0, i64 24, i1 false)
  %33 = load i32, ptr %2, align 4, !tbaa !19
  %34 = icmp slt i32 %33, 1
  br i1 %34, label %35, label %_ZN6icu_779SpoofData8initPtrsER10UErrorCode.exit

35:                                               ; preds = %_ZNK6icu_779SpoofData19validateDataVersionER10UErrorCode.exit
  %36 = getelementptr inbounds nuw i8, ptr %12, i64 12
  %37 = load i32, ptr %36, align 4, !tbaa !76
  %.not4.i6 = icmp eq i32 %37, 0
  br i1 %.not4.i6, label %41, label %38

38:                                               ; preds = %35
  %39 = sext i32 %37 to i64
  %40 = getelementptr inbounds i8, ptr %12, i64 %39
  store ptr %40, ptr %8, align 8, !tbaa !52
  br label %41

41:                                               ; preds = %38, %35
  %42 = getelementptr inbounds nuw i8, ptr %12, i64 20
  %43 = load i32, ptr %42, align 4, !tbaa !77
  %.not5.i7 = icmp eq i32 %43, 0
  br i1 %.not5.i7, label %47, label %44

44:                                               ; preds = %41
  %45 = sext i32 %43 to i64
  %46 = getelementptr inbounds i8, ptr %12, i64 %45
  store ptr %46, ptr %31, align 8, !tbaa !55
  br label %47

47:                                               ; preds = %44, %41
  %48 = getelementptr inbounds nuw i8, ptr %12, i64 28
  %49 = load i32, ptr %48, align 4, !tbaa !78
  %.not6.i8 = icmp eq i32 %49, 0
  br i1 %.not6.i8, label %_ZN6icu_779SpoofData8initPtrsER10UErrorCode.exit, label %50

50:                                               ; preds = %47
  %51 = sext i32 %49 to i64
  %52 = getelementptr inbounds i8, ptr %12, i64 %51
  store ptr %52, ptr %32, align 8, !tbaa !58
  br label %_ZN6icu_779SpoofData8initPtrsER10UErrorCode.exit

_ZN6icu_779SpoofData8initPtrsER10UErrorCode.exit: ; preds = %50, %47, %_ZNK6icu_779SpoofData19validateDataVersionER10UErrorCode.exit, %3
  ret void
}